; Function Attrs: mustprogress uwtable
define noundef zeroext i1 @_ZN3nix10SQLiteStmt3Use4nextEv(ptr nocapture noundef nonnull readonly align 8 dereferenceable(12) %0) local_unnamed_addr #2 align 2 personality ptr @__gxx_personality_v0 {
  %2 = alloca %"class.std::__cxx11::basic_string", align 8
  %3 = alloca %"class.std::__cxx11::basic_string", align 8
  %4 = alloca %"class.std::allocator.4", align 1
  %5 = alloca ptr, align 8
  %6 = load ptr, ptr %0, align 8
  %7 = getelementptr inbounds i8, ptr %6, i64 8
  %8 = load ptr, ptr %7, align 8
  %9 = tail call noundef i32 @sqlite3_step(ptr noundef %8)
  %10 = add i32 %9, -102
  %or.cond = icmp ult i32 %10, -2
  br i1 %or.cond, label %11, label %30

11:                                               ; preds = %1
  %12 = load ptr, ptr %0, align 8
  %13 = load ptr, ptr %12, align 8
  call void @_ZNSaIcEC1Ev(ptr noundef nonnull align 1 dereferenceable(1) %4) #22
  invoke void @_ZNSt7__cxx1112basic_stringIcSt11char_traitsIcESaIcEEC2IS3_EEPKcRKS3_(ptr noundef nonnull align 8 dereferenceable(32) %3, ptr noundef nonnull @.str.25, ptr noundef nonnull align 1 dereferenceable(1) %4)
          to label %14 unwind label %22

14:                                               ; preds = %11
  %15 = load ptr, ptr %0, align 8
  %16 = getelementptr inbounds i8, ptr %15, i64 8
  %17 = load ptr, ptr %16, align 8
  %18 = invoke ptr @sqlite3_expanded_sql(ptr noundef %17)
          to label %19 unwind label %24

19:                                               ; preds = %14
  store ptr %18, ptr %5, align 8
  invoke void @_ZN3nix3fmtIJPcEEENSt7__cxx1112basic_stringIcSt11char_traitsIcESaIcEEERKS7_DpRKT_(ptr dead_on_unwind nonnull writable sret(%"class.std::__cxx11::basic_string") align 8 %2, ptr noundef nonnull align 8 dereferenceable(32) %3, ptr noundef nonnull align 8 dereferenceable(8) %5)
          to label %20 unwind label %24

20:                                               ; preds = %19
  invoke void @_ZN3nix11SQLiteError6throw_IJEEEvP7sqlite3RKNSt7__cxx1112basic_stringIcSt11char_traitsIcESaIcEEEDpRKT_(ptr noundef %13, ptr noundef nonnull align 8 dereferenceable(32) %2) #24
          to label %21 unwind label %26

21:                                               ; preds = %20
  unreachable

22:                                               ; preds = %11
  %23 = landingpad { ptr, i32 }
          cleanup
  br label %29

24:                                               ; preds = %19, %14
  %25 = landingpad { ptr, i32 }
          cleanup
  br label %28

26:                                               ; preds = %20
  %27 = landingpad { ptr, i32 }
          cleanup
  call void @_ZNSt7__cxx1112basic_stringIcSt11char_traitsIcESaIcEED2Ev(ptr noundef nonnull align 8 dereferenceable(32) %2) #22
  br label %28

28:                                               ; preds = %26, %24
  %.pn = phi { ptr, i32 } [ %27, %26 ], [ %25, %24 ]
  call void @_ZNSt7__cxx1112basic_stringIcSt11char_traitsIcESaIcEED2Ev(ptr noundef nonnull align 8 dereferenceable(32) %3) #22
  br label %29

29:                                               ; preds = %28, %22
  %.pn.pn = phi { ptr, i32 } [ %.pn, %28 ], [ %23, %22 ]
  call void @_ZNSaIcED1Ev(ptr noundef nonnull align 1 dereferenceable(1) %4) #22
  resume { ptr, i32 } %.pn.pn

30:                                               ; preds = %1
  %31 = icmp eq i32 %9, 100
  ret i1 %31
}